target datalayout = "e-m:e-p270:32:32-p271:32:32-p272:64:64-i64:64-i128:128-f80:128-n8:16:32:64-S128"
target triple = "x86_64-pc-linux-gnu"

%struct.packet_verdict_opt_s = type { i32, %union.anon.4 }
%union.anon.4 = type { ptr }
%struct.packet_hash_opt_s = type { i8, ptr }
%struct._GByteArray = type { ptr, i32 }

; Function Attrs: nounwind uwtable
define internal i32 @pcapng_compute_packet_hash_option_size(ptr noundef %0) #0 {
  %2 = alloca ptr, align 8
  %3 = alloca ptr, align 8
  %4 = alloca i32, align 4
  %5 = alloca i32, align 4
  store ptr %0, ptr %2, align 8
  %6 = load ptr, ptr %2, align 8
  store ptr %6, ptr %3, align 8
  %7 = load ptr, ptr %3, align 8
  %8 = getelementptr inbounds %struct.packet_hash_opt_s, ptr %7, i32 0, i32 0
  %9 = load i8, ptr %8, align 8
  %10 = zext i8 %9 to i32
  switch i32 %10, label %15 [
    i32 2, label %11
    i32 3, label %12
    i32 4, label %13
    i32 5, label %14
  ]

11:                                               ; preds = %1
  store i32 4, ptr %4, align 4
  br label %21

12:                                               ; preds = %1
  store i32 16, ptr %4, align 4
  br label %21

13:                                               ; preds = %1
  store i32 20, ptr %4, align 4
  br label %21

14:                                               ; preds = %1
  store i32 4, ptr %4, align 4
  br label %21

15:                                               ; preds = %1
  %16 = load ptr, ptr %3, align 8
  %17 = getelementptr inbounds %struct.packet_hash_opt_s, ptr %16, i32 0, i32 1
  %18 = load ptr, ptr %17, align 8
  %19 = getelementptr inbounds %struct._GByteArray, ptr %18, i32 0, i32 1
  %20 = load i32, ptr %19, align 8
  store i32 %20, ptr %4, align 4
  br label %21

21:                                               ; preds = %15, %14, %13, %12, %11
  %22 = load i32, ptr %4, align 4
  %23 = urem i32 %22, 4
  %24 = icmp ne i32 %23, 0
  br i1 %24, label %25, label %29

25:                                               ; preds = %21
  %26 = load i32, ptr %4, align 4
  %27 = urem i32 %26, 4
  %28 = sub i32 4, %27
  store i32 %28, ptr %5, align 4
  br label %30

29:                                               ; preds = %21
  store i32 0, ptr %5, align 4
  br label %30

30:                                               ; preds = %29, %25
  %31 = load i32, ptr %5, align 4
  %32 = load i32, ptr %4, align 4
  %33 = add i32 %32, %31
  store i32 %33, ptr %4, align 4
  %34 = load i32, ptr %4, align 4
  ret i32 %34
}

; Function Attrs: nounwind uwtable
define internal i32 @pcapng_compute_packet_verdict_option_size(ptr noundef %0) #0 {
  %2 = alloca ptr, align 8
  %3 = alloca ptr, align 8
  %4 = alloca i32, align 4
  %5 = alloca i32, align 4
  store ptr %0, ptr %2, align 8
  %6 = load ptr, ptr %2, align 8
  store ptr %6, ptr %3, align 8
  %7 = load ptr, ptr %3, align 8
  %8 = getelementptr inbounds %struct.packet_verdict_opt_s, ptr %7, i32 0, i32 0
  %9 = load i32, ptr %8, align 8
  switch i32 %9, label %18 [
    i32 0, label %10
    i32 1, label %16
    i32 2, label %17
  ]

10:                                               ; preds = %1
  %11 = load ptr, ptr %3, align 8
  %12 = getelementptr inbounds %struct.packet_verdict_opt_s, ptr %11, i32 0, i32 1
  %13 = load ptr, ptr %12, align 8
  %14 = getelementptr inbounds %struct._GByteArray, ptr %13, i32 0, i32 1
  %15 = load i32, ptr %14, align 8
  store i32 %15, ptr %4, align 4
  br label %19

16:                                               ; preds = %1
  store i32 9, ptr %4, align 4
  br label %19

17:                                               ; preds = %1
  store i32 9, ptr %4, align 4
  br label %19

18:                                               ; preds = %1
  store i32 0, ptr %4, align 4
  br label %19

19:                                               ; preds = %18, %17, %16, %10
  %20 = load i32, ptr %4, align 4
  %21 = urem i32 %20, 4
  %22 = icmp ne i32 %21, 0
  br i1 %22, label %23, label %27

23:                                               ; preds = %19
  %24 = load i32, ptr %4, align 4
  %25 = urem i32 %24, 4
  %26 = sub i32 4, %25
  store i32 %26, ptr %5, align 4
  br label %28

27:                                               ; preds = %19
  store i32 0, ptr %5, align 4
  br label %28

28:                                               ; preds = %27, %23
  %29 = load i32, ptr %5, align 4
  %30 = load i32, ptr %4, align 4
  %31 = add i32 %30, %29
  store i32 %31, ptr %4, align 4
  %32 = load i32, ptr %4, align 4
  ret i32 %32
}

; Function Attrs: nounwind uwtable
define internal i32 @compute_epb_option_size(ptr noundef %0, i32 noundef %1, i32 noundef %2, ptr noundef %3) #0 {
  %5 = alloca ptr, align 8
  %6 = alloca i32, align 4
  %7 = alloca i32, align 4
  %8 = alloca ptr, align 8
  %9 = alloca i32, align 4
  store ptr %0, ptr %5, align 8
  store i32 %1, ptr %6, align 4
  store i32 %2, ptr %7, align 4
  store ptr %3, ptr %8, align 8
  %10 = load i32, ptr %6, align 4
  switch i32 %10, label %21 [
    i32 2, label %11
    i32 4, label %12
    i32 5, label %13
    i32 6, label %14
    i32 7, label %15
    i32 3, label %18
  ]

11:                                               ; preds = %4
  store i32 4, ptr %9, align 4
  br label %22

12:                                               ; preds = %4
  store i32 8, ptr %9, align 4
  br label %22

13:                                               ; preds = %4
  store i32 8, ptr %9, align 4
  br label %22

14:                                               ; preds = %4
  store i32 4, ptr %9, align 4
  br label %22

15:                                               ; preds = %4
  %16 = load ptr, ptr %8, align 8
  %17 = call i32 @pcapng_compute_packet_verdict_option_size(ptr noundef %16)
  store i32 %17, ptr %9, align 4
  br label %22

18:                                               ; preds = %4
  %19 = load ptr, ptr %8, align 8
  %20 = call i32 @pcapng_compute_packet_hash_option_size(ptr noundef %19)
  store i32 %20, ptr %9, align 4
  br label %22

21:                                               ; preds = %4
  store i32 0, ptr %9, align 4
  br label %22

22:                                               ; preds = %21, %18, %15, %14, %13, %12, %11
  %23 = load i32, ptr %9, align 4
  ret i32 %23
}