; Function Attrs: mustprogress nofree norecurse nosync nounwind willreturn memory(read, inaccessiblemem: none) uwtable
define internal i32 @compute_epb_option_size(ptr readnone captures(none) %0, i32 noundef %1, i32 %2, ptr noundef readonly captures(none) %3) #11 {
  switch i32 %1, label %28 [
    i32 2, label %29
    i32 4, label %5
    i32 5, label %5
    i32 6, label %29
    i32 7, label %6
    i32 3, label %17
  ]

5:                                                ; preds = %4, %4
  br label %29

6:                                                ; preds = %4
  %7 = load i32, ptr %3, align 8
  switch i32 %7, label %13 [
    i32 0, label %8
    i32 1, label %pcapng_compute_packet_verdict_option_size.exit
    i32 2, label %pcapng_compute_packet_verdict_option_size.exit
  ]

8:                                                ; preds = %6
  %9 = getelementptr inbounds nuw i8, ptr %3, i64 8
  %10 = load ptr, ptr %9, align 8
  %11 = getelementptr inbounds nuw i8, ptr %10, i64 8
  %12 = load i32, ptr %11, align 8
  br label %pcapng_compute_packet_verdict_option_size.exit

13:                                               ; preds = %6
  br label %pcapng_compute_packet_verdict_option_size.exit

pcapng_compute_packet_verdict_option_size.exit:   ; preds = %6, %6, %8, %13
  %.07.i = phi i32 [ 0, %13 ], [ %12, %8 ], [ 9, %6 ], [ 9, %6 ]
  %14 = and i32 %.07.i, 3
  %.not.i = icmp eq i32 %14, 0
  %15 = sub nuw nsw i32 4, %14
  %.0.i = select i1 %.not.i, i32 0, i32 %15
  %16 = add i32 %.0.i, %.07.i
  br label %29

17:                                               ; preds = %4
  %18 = load i8, ptr %3, align 8
  %switch.tableidx = add i8 %18, -2
  %19 = icmp ult i8 %switch.tableidx, 4
  br i1 %19, label %switch.lookup, label %20

20:                                               ; preds = %17
  %21 = getelementptr inbounds nuw i8, ptr %3, i64 8
  %22 = load ptr, ptr %21, align 8
  %23 = getelementptr inbounds nuw i8, ptr %22, i64 8
  br label %pcapng_compute_packet_hash_option_size.exit

switch.lookup:                                    ; preds = %17
  %24 = zext nneg i8 %switch.tableidx to i64
  %switch.gep = getelementptr inbounds nuw [4 x i32], ptr @switch.table.compute_epb_option_size, i64 0, i64 %24
  br label %pcapng_compute_packet_hash_option_size.exit

pcapng_compute_packet_hash_option_size.exit:      ; preds = %switch.lookup, %20
  %.07.i3.in = phi ptr [ %23, %20 ], [ %switch.gep, %switch.lookup ]
  %.07.i3 = load i32, ptr %.07.i3.in, align 4
  %25 = and i32 %.07.i3, 3
  %.not.i4 = icmp eq i32 %25, 0
  %26 = sub nuw nsw i32 4, %25
  %.0.i5 = select i1 %.not.i4, i32 0, i32 %26
  %27 = add i32 %.0.i5, %.07.i3
  br label %29

28:                                               ; preds = %4
  br label %29

29:                                               ; preds = %4, %4, %28, %pcapng_compute_packet_hash_option_size.exit, %pcapng_compute_packet_verdict_option_size.exit, %5
  %.0 = phi i32 [ 0, %28 ], [ %27, %pcapng_compute_packet_hash_option_size.exit ], [ %16, %pcapng_compute_packet_verdict_option_size.exit ], [ 8, %5 ], [ 4, %4 ], [ 4, %4 ]
  ret i32 %.0
}